target datalayout = "e-m:e-p270:32:32-p271:32:32-p272:64:64-i64:64-i128:128-f80:128-n8:16:32:64-S128"
target triple = "x86_64-pc-linux-gnu"

%struct.timespec = type { i64, i64 }

@.str.8 = private unnamed_addr constant [2 x i8] c"\0A\00", align 1
@.str.11 = private unnamed_addr constant [5 x i8] c"Time\00", align 1
@.str.15 = private unnamed_addr constant [34 x i8] c"Best round %3d. Best nodes %5d.  \00", align 1
@.str.21 = private unnamed_addr constant [5 x i8] c"%s =\00", align 1
@.str.22 = private unnamed_addr constant [11 x i8] c"%9.2f sec\0A\00", align 1

; Function Attrs: inlinehint nounwind uwtable
define internal void @Abc_PrintTime(i32 noundef %0, ptr noundef %1, i64 noundef %2) #4 {
  %4 = alloca i32, align 4
  %5 = alloca ptr, align 8
  %6 = alloca i64, align 8
  store i32 %0, ptr %4, align 4, !tbaa !9
  store ptr %1, ptr %5, align 8, !tbaa !64
  store i64 %2, ptr %6, align 8, !tbaa !33
  %7 = load ptr, ptr %5, align 8, !tbaa !64
  call void (i32, ptr, ...) @Abc_Print(i32 noundef 1, ptr noundef @.str.21, ptr noundef %7)
  %8 = load i64, ptr %6, align 8, !tbaa !33
  %9 = sitofp i64 %8 to double
  %10 = fmul double 1.000000e+00, %9
  %11 = fdiv double %10, 1.000000e+06
  call void (i32, ptr, ...) @Abc_Print(i32 noundef 1, ptr noundef @.str.22, double noundef %11)
  ret void
}

; Function Attrs: inlinehint nounwind uwtable
define internal void @Abc_TtCopy(ptr noundef %0, ptr noundef %1, i32 noundef %2, i32 noundef %3) #4 {
  %5 = alloca ptr, align 8
  %6 = alloca ptr, align 8
  %7 = alloca i32, align 4
  %8 = alloca i32, align 4
  %9 = alloca i32, align 4
  store ptr %0, ptr %5, align 8, !tbaa !12
  store ptr %1, ptr %6, align 8, !tbaa !12
  store i32 %2, ptr %7, align 4, !tbaa !9
  store i32 %3, ptr %8, align 4, !tbaa !9
  call void @llvm.lifetime.start.p0(i64 4, ptr %9) #13
  %10 = load i32, ptr %8, align 4, !tbaa !9
  %11 = icmp ne i32 %10, 0
  br i1 %11, label %12, label %32

12:                                               ; preds = %4
  store i32 0, ptr %9, align 4, !tbaa !9
  br label %13

13:                                               ; preds = %28, %12
  %14 = load i32, ptr %9, align 4, !tbaa !9
  %15 = load i32, ptr %7, align 4, !tbaa !9
  %16 = icmp slt i32 %14, %15
  br i1 %16, label %17, label %31

17:                                               ; preds = %13
  %18 = load ptr, ptr %6, align 8, !tbaa !12
  %19 = load i32, ptr %9, align 4, !tbaa !9
  %20 = sext i32 %19 to i64
  %21 = getelementptr inbounds i64, ptr %18, i64 %20
  %22 = load i64, ptr %21, align 8, !tbaa !33
  %23 = xor i64 %22, -1
  %24 = load ptr, ptr %5, align 8, !tbaa !12
  %25 = load i32, ptr %9, align 4, !tbaa !9
  %26 = sext i32 %25 to i64
  %27 = getelementptr inbounds i64, ptr %24, i64 %26
  store i64 %23, ptr %27, align 8, !tbaa !33
  br label %28

28:                                               ; preds = %17
  %29 = load i32, ptr %9, align 4, !tbaa !9
  %30 = add nsw i32 %29, 1
  store i32 %30, ptr %9, align 4, !tbaa !9
  br label %13, !llvm.loop !49

31:                                               ; preds = %13
  br label %51

32:                                               ; preds = %4
  store i32 0, ptr %9, align 4, !tbaa !9
  br label %33

33:                                               ; preds = %47, %32
  %34 = load i32, ptr %9, align 4, !tbaa !9
  %35 = load i32, ptr %7, align 4, !tbaa !9
  %36 = icmp slt i32 %34, %35
  br i1 %36, label %37, label %50

37:                                               ; preds = %33
  %38 = load ptr, ptr %6, align 8, !tbaa !12
  %39 = load i32, ptr %9, align 4, !tbaa !9
  %40 = sext i32 %39 to i64
  %41 = getelementptr inbounds i64, ptr %38, i64 %40
  %42 = load i64, ptr %41, align 8, !tbaa !33
  %43 = load ptr, ptr %5, align 8, !tbaa !12
  %44 = load i32, ptr %9, align 4, !tbaa !9
  %45 = sext i32 %44 to i64
  %46 = getelementptr inbounds i64, ptr %43, i64 %45
  store i64 %42, ptr %46, align 8, !tbaa !33
  br label %47

47:                                               ; preds = %37
  %48 = load i32, ptr %9, align 4, !tbaa !9
  %49 = add nsw i32 %48, 1
  store i32 %49, ptr %9, align 4, !tbaa !9
  br label %33, !llvm.loop !50

50:                                               ; preds = %33
  br label %51

51:                                               ; preds = %50, %31
  call void @llvm.lifetime.end.p0(i64 4, ptr %9) #13
  ret void
}

; Function Attrs: inlinehint nounwind uwtable
define internal ptr @Abc_TtDup(ptr noundef %0, i32 noundef %1, i32 noundef %2) #4 {
  %4 = alloca ptr, align 8
  %5 = alloca i32, align 4
  %6 = alloca i32, align 4
  %7 = alloca ptr, align 8
  store ptr %0, ptr %4, align 8, !tbaa !12
  store i32 %1, ptr %5, align 4, !tbaa !9
  store i32 %2, ptr %6, align 4, !tbaa !9
  call void @llvm.lifetime.start.p0(i64 8, ptr %7) #13
  %8 = load i32, ptr %5, align 4, !tbaa !9
  %9 = sext i32 %8 to i64
  %10 = mul i64 8, %9
  %11 = call noalias ptr @malloc(i64 noundef %10) #15
  store ptr %11, ptr %7, align 8, !tbaa !12
  %12 = load ptr, ptr %7, align 8, !tbaa !12
  %13 = load ptr, ptr %4, align 8, !tbaa !12
  %14 = load i32, ptr %5, align 4, !tbaa !9
  %15 = load i32, ptr %6, align 4, !tbaa !9
  call void @Abc_TtCopy(ptr noundef %12, ptr noundef %13, i32 noundef %14, i32 noundef %15)
  %16 = load ptr, ptr %7, align 8, !tbaa !12
  call void @llvm.lifetime.end.p0(i64 8, ptr %7) #13
  ret ptr %16
}

; Function Attrs: inlinehint nounwind uwtable
define internal i64 @Abc_Clock() #4 {
  %1 = alloca i64, align 8
  %2 = alloca %struct.timespec, align 8
  %3 = alloca i32, align 4
  %4 = alloca i64, align 8
  call void @llvm.lifetime.start.p0(i64 16, ptr %2) #13
  %5 = call i32 @clock_gettime(i32 noundef 1, ptr noundef %2) #13
  %6 = icmp slt i32 %5, 0
  br i1 %6, label %7, label %8

7:                                                ; preds = %0
  store i64 -1, ptr %1, align 8
  store i32 1, ptr %3, align 4
  br label %19

8:                                                ; preds = %0
  call void @llvm.lifetime.start.p0(i64 8, ptr %4) #13
  %9 = getelementptr inbounds nuw %struct.timespec, ptr %2, i32 0, i32 0
  %10 = load i64, ptr %9, align 8, !tbaa !151
  %11 = mul nsw i64 %10, 1000000
  store i64 %11, ptr %4, align 8, !tbaa !33
  %12 = getelementptr inbounds nuw %struct.timespec, ptr %2, i32 0, i32 1
  %13 = load i64, ptr %12, align 8, !tbaa !153
  %14 = mul nsw i64 %13, 1000000
  %15 = sdiv i64 %14, 1000000000
  %16 = load i64, ptr %4, align 8, !tbaa !33
  %17 = add nsw i64 %16, %15
  store i64 %17, ptr %4, align 8, !tbaa !33
  %18 = load i64, ptr %4, align 8, !tbaa !33
  store i64 %18, ptr %1, align 8
  store i32 1, ptr %3, align 4
  call void @llvm.lifetime.end.p0(i64 8, ptr %4) #13
  br label %19

19:                                               ; preds = %8, %7
  call void @llvm.lifetime.end.p0(i64 16, ptr %2) #13
  %20 = load i64, ptr %1, align 8
  ret i64 %20
}

; Function Attrs: nounwind uwtable
define ptr @Gia_TryPermOptCare(ptr noundef %0, i32 noundef %1, i32 noundef %2, i32 noundef %3, i32 noundef %4, i32 noundef %5) #0 {
  %7 = alloca ptr, align 8
  %8 = alloca i32, align 4
  %9 = alloca i32, align 4
  %10 = alloca i32, align 4
  %11 = alloca i32, align 4
  %12 = alloca i32, align 4
  %13 = alloca i64, align 8
  %14 = alloca ptr, align 8
  %15 = alloca ptr, align 8
  %16 = alloca ptr, align 8
  %17 = alloca [16 x i32], align 16
  %18 = alloca [16 x i32], align 16
  %19 = alloca i32, align 4
  %20 = alloca i32, align 4
  %21 = alloca i32, align 4
  %22 = alloca i32, align 4
  store ptr %0, ptr %7, align 8, !tbaa !12
  store i32 %1, ptr %8, align 4, !tbaa !9
  store i32 %2, ptr %9, align 4, !tbaa !9
  store i32 %3, ptr %10, align 4, !tbaa !9
  store i32 %4, ptr %11, align 4, !tbaa !9
  store i32 %5, ptr %12, align 4, !tbaa !9
  call void @llvm.lifetime.start.p0(i64 8, ptr %13) #13
  %23 = call i64 @Abc_Clock()
  store i64 %23, ptr %13, align 8, !tbaa !33
  call void @llvm.lifetime.start.p0(i64 8, ptr %14) #13
  call void @llvm.lifetime.start.p0(i64 8, ptr %15) #13
  %24 = load ptr, ptr %7, align 8, !tbaa !12
  %25 = load i32, ptr %9, align 4, !tbaa !9
  %26 = load i32, ptr %10, align 4, !tbaa !9
  %27 = mul nsw i32 %25, %26
  %28 = call ptr @Abc_TtDup(ptr noundef %24, i32 noundef %27, i32 noundef 0)
  store ptr %28, ptr %15, align 8, !tbaa !12
  call void @llvm.lifetime.start.p0(i64 8, ptr %16) #13
  %29 = load i32, ptr %9, align 4, !tbaa !9
  %30 = add nsw i32 %29, 1
  %31 = load i32, ptr %10, align 4, !tbaa !9
  %32 = mul nsw i32 %30, %31
  %33 = sext i32 %32 to i64
  %34 = mul i64 8, %33
  %35 = call noalias ptr @malloc(i64 noundef %34) #15
  %36 = load i32, ptr %9, align 4, !tbaa !9
  %37 = add nsw i32 %36, 1
  %38 = load i32, ptr %10, align 4, !tbaa !9
  %39 = mul nsw i32 %37, %38
  %40 = sext i32 %39 to i64
  %41 = mul i64 8, %40
  call void @llvm.memset.p0.i64(ptr align 1 %35, i8 -1, i64 %41, i1 false)
  store ptr %35, ptr %16, align 8, !tbaa !12
  call void @llvm.lifetime.start.p0(i64 64, ptr %17) #13
  call void @llvm.memset.p0.i64(ptr align 16 %17, i8 0, i64 64, i1 false)
  call void @llvm.lifetime.start.p0(i64 64, ptr %18) #13
  call void @llvm.memset.p0.i64(ptr align 16 %18, i8 0, i64 64, i1 false)
  call void @llvm.lifetime.start.p0(i64 4, ptr %19) #13
  call void @llvm.lifetime.start.p0(i64 4, ptr %20) #13
  store i32 -1, ptr %20, align 4, !tbaa !9
  call void @llvm.lifetime.start.p0(i64 4, ptr %21) #13
  store i32 -1, ptr %21, align 4, !tbaa !9
  call void @llvm.lifetime.start.p0(i64 4, ptr %22) #13
  store i32 1000000000, ptr %22, align 4, !tbaa !9
  %42 = call i32 @Gia_ManRandom(i32 noundef 1)
  store i32 0, ptr %19, align 4, !tbaa !9
  br label %43

43:                                               ; preds = %85, %6
  %44 = load i32, ptr %19, align 4, !tbaa !9
  %45 = load i32, ptr %11, align 4, !tbaa !9
  %46 = icmp slt i32 %44, %45
  br i1 %46, label %47, label %88

47:                                               ; preds = %43
  %48 = load ptr, ptr %15, align 8, !tbaa !12
  %49 = load i32, ptr %8, align 4, !tbaa !9
  %50 = load i32, ptr %9, align 4, !tbaa !9
  %51 = load i32, ptr %10, align 4, !tbaa !9
  %52 = load i32, ptr %19, align 4, !tbaa !9
  %53 = icmp sgt i32 %52, 0
  %54 = zext i1 %53 to i32
  %55 = getelementptr inbounds [16 x i32], ptr %18, i64 0, i64 0
  %56 = load i32, ptr %12, align 4, !tbaa !9
  %57 = call i32 @Gia_ManPermuteTreeOne(ptr noundef %48, i32 noundef %49, i32 noundef %50, i32 noundef %51, i32 noundef %54, ptr noundef %55, i32 noundef 0, i32 noundef %56)
  store i32 %57, ptr %21, align 4, !tbaa !9
  %58 = load i32, ptr %22, align 4, !tbaa !9
  %59 = load i32, ptr %21, align 4, !tbaa !9
  %60 = icmp sgt i32 %58, %59
  br i1 %60, label %61, label %74

61:                                               ; preds = %47
  %62 = load i32, ptr %21, align 4, !tbaa !9
  store i32 %62, ptr %22, align 4, !tbaa !9
  %63 = getelementptr inbounds [16 x i32], ptr %17, i64 0, i64 0
  %64 = getelementptr inbounds [16 x i32], ptr %18, i64 0, i64 0
  %65 = load i32, ptr %8, align 4, !tbaa !9
  %66 = sext i32 %65 to i64
  %67 = mul i64 4, %66
  call void @llvm.memcpy.p0.p0.i64(ptr align 16 %63, ptr align 16 %64, i64 %67, i1 false)
  %68 = load ptr, ptr %16, align 8, !tbaa !12
  %69 = load ptr, ptr %15, align 8, !tbaa !12
  %70 = load i32, ptr %9, align 4, !tbaa !9
  %71 = load i32, ptr %10, align 4, !tbaa !9
  %72 = mul nsw i32 %70, %71
  call void @Abc_TtCopy(ptr noundef %68, ptr noundef %69, i32 noundef %72, i32 noundef 0)
  %73 = load i32, ptr %19, align 4, !tbaa !9
  store i32 %73, ptr %20, align 4, !tbaa !9
  br label %74

74:                                               ; preds = %61, %47
  %75 = load ptr, ptr %15, align 8, !tbaa !12
  %76 = load ptr, ptr %7, align 8, !tbaa !12
  %77 = load i32, ptr %9, align 4, !tbaa !9
  %78 = load i32, ptr %10, align 4, !tbaa !9
  %79 = mul nsw i32 %77, %78
  call void @Abc_TtCopy(ptr noundef %75, ptr noundef %76, i32 noundef %79, i32 noundef 0)
  %80 = load i32, ptr %12, align 4, !tbaa !9
  %81 = icmp ne i32 %80, 0
  br i1 %81, label %82, label %84

82:                                               ; preds = %74
  %83 = call i32 (ptr, ...) @printf(ptr noundef @.str.8)
  br label %84

84:                                               ; preds = %82, %74
  br label %85

85:                                               ; preds = %84
  %86 = load i32, ptr %19, align 4, !tbaa !9
  %87 = add nsw i32 %86, 1
  store i32 %87, ptr %19, align 4, !tbaa !9
  br label %43, !llvm.loop !138

88:                                               ; preds = %43
  %89 = load i32, ptr %12, align 4, !tbaa !9
  %90 = icmp ne i32 %89, 0
  br i1 %90, label %91, label %95

91:                                               ; preds = %88
  %92 = load i32, ptr %20, align 4, !tbaa !9
  %93 = load i32, ptr %22, align 4, !tbaa !9
  %94 = call i32 (ptr, ...) @printf(ptr noundef @.str.15, i32 noundef %92, i32 noundef %93)
  br label %95

95:                                               ; preds = %91, %88
  %96 = load ptr, ptr %15, align 8, !tbaa !12
  %97 = icmp ne ptr %96, null
  br i1 %97, label %98, label %100

98:                                               ; preds = %95
  %99 = load ptr, ptr %15, align 8, !tbaa !12
  call void @free(ptr noundef %99) #13
  store ptr null, ptr %15, align 8, !tbaa !12
  br label %101

100:                                              ; preds = %95
  br label %101

101:                                              ; preds = %100, %98
  %102 = load i32, ptr %12, align 4, !tbaa !9
  %103 = icmp ne i32 %102, 0
  br i1 %103, label %104, label %108

104:                                              ; preds = %101
  %105 = call i64 @Abc_Clock()
  %106 = load i64, ptr %13, align 8, !tbaa !33
  %107 = sub nsw i64 %105, %106
  call void @Abc_PrintTime(i32 noundef 1, ptr noundef @.str.11, i64 noundef %107)
  br label %108

108:                                              ; preds = %104, %101
  %109 = load ptr, ptr %16, align 8, !tbaa !12
  %110 = load i32, ptr %8, align 4, !tbaa !9
  %111 = load i32, ptr %9, align 4, !tbaa !9
  %112 = getelementptr inbounds [16 x i32], ptr %17, i64 0, i64 0
  %113 = call ptr @Abc_TtSimpleMinArrayNew(ptr noundef %109, i32 noundef %110, i32 noundef %111, ptr noundef null, i32 noundef 0, ptr noundef %112)
  store ptr %113, ptr %14, align 8, !tbaa !94
  %114 = load ptr, ptr %16, align 8, !tbaa !12
  %115 = icmp ne ptr %114, null
  br i1 %115, label %116, label %118

116:                                              ; preds = %108
  %117 = load ptr, ptr %16, align 8, !tbaa !12
  call void @free(ptr noundef %117) #13
  store ptr null, ptr %16, align 8, !tbaa !12
  br label %119

118:                                              ; preds = %108
  br label %119

119:                                              ; preds = %118, %116
  %120 = load ptr, ptr %14, align 8, !tbaa !94
  call void @llvm.lifetime.end.p0(i64 4, ptr %22) #13
  call void @llvm.lifetime.end.p0(i64 4, ptr %21) #13
  call void @llvm.lifetime.end.p0(i64 4, ptr %20) #13
  call void @llvm.lifetime.end.p0(i64 4, ptr %19) #13
  call void @llvm.lifetime.end.p0(i64 64, ptr %18) #13
  call void @llvm.lifetime.end.p0(i64 64, ptr %17) #13
  call void @llvm.lifetime.end.p0(i64 8, ptr %16) #13
  call void @llvm.lifetime.end.p0(i64 8, ptr %15) #13
  call void @llvm.lifetime.end.p0(i64 8, ptr %14) #13
  call void @llvm.lifetime.end.p0(i64 8, ptr %13) #13
  ret ptr %120
}