; Function Attrs: nounwind uwtable
define ptr @Gia_TryPermOptCare(ptr noundef readonly captures(none) %0, i32 noundef %1, i32 noundef %2, i32 noundef %3, i32 noundef %4, i32 noundef %5) local_unnamed_addr #0 {
  %7 = alloca %struct.timespec, align 8
  %8 = alloca %struct.timespec, align 8
  %9 = alloca [16 x i32], align 16
  %10 = alloca [16 x i32], align 16
  call void @llvm.lifetime.start.p0(i64 16, ptr nonnull %8) #24
  %11 = call i32 @clock_gettime(i32 noundef 1, ptr noundef nonnull %8) #24
  %12 = icmp slt i32 %11, 0
  br i1 %12, label %Abc_Clock.exit, label %13

13:                                               ; preds = %6
  %14 = load i64, ptr %8, align 8, !tbaa !57
  %.neg64 = mul i64 %14, -1000000
  %15 = getelementptr inbounds nuw i8, ptr %8, i64 8
  %16 = load i64, ptr %15, align 8, !tbaa !59
  %.neg = sdiv i64 %16, -1000
  %.neg65 = add i64 %.neg, %.neg64
  br label %Abc_Clock.exit

Abc_Clock.exit:                                   ; preds = %6, %13
  %.0.i.neg = phi i64 [ %.neg65, %13 ], [ 1, %6 ]
  call void @llvm.lifetime.end.p0(i64 16, ptr nonnull %8) #24
  %17 = mul nsw i32 %3, %2
  %18 = sext i32 %17 to i64
  %19 = shl nsw i64 %18, 3
  %20 = call noalias ptr @malloc(i64 noundef %19) #22
  %21 = icmp sgt i32 %17, 0
  br i1 %21, label %.lr.ph18.preheader.i.i, label %Abc_TtDup.exit

.lr.ph18.preheader.i.i:                           ; preds = %Abc_Clock.exit
  %wide.trip.count24.i.i = zext nneg i32 %17 to i64
  %22 = shl nuw nsw i64 %wide.trip.count24.i.i, 3
  call void @llvm.memcpy.p0.p0.i64(ptr align 8 %20, ptr readonly align 8 %0, i64 %22, i1 false), !tbaa !16
  br label %Abc_TtDup.exit

Abc_TtDup.exit:                                   ; preds = %Abc_Clock.exit, %.lr.ph18.preheader.i.i
  %23 = add nsw i32 %2, 1
  %24 = mul nsw i32 %23, %3
  %25 = sext i32 %24 to i64
  %26 = shl nsw i64 %25, 3
  %27 = call noalias ptr @malloc(i64 noundef %26) #22
  call void @llvm.memset.p0.i64(ptr align 1 %27, i8 -1, i64 %26, i1 false)
  call void @llvm.lifetime.start.p0(i64 64, ptr nonnull %9) #24
  call void @llvm.memset.p0.i64(ptr noundef nonnull align 16 dereferenceable(64) %9, i8 0, i64 64, i1 false)
  call void @llvm.lifetime.start.p0(i64 64, ptr nonnull %10) #24
  call void @llvm.memset.p0.i64(ptr noundef nonnull align 16 dereferenceable(64) %10, i8 0, i64 64, i1 false)
  %28 = call i32 @Gia_ManRandom(i32 noundef 1) #24
  %29 = icmp sgt i32 %4, 0
  br i1 %29, label %.lr.ph, label %._crit_edge

.lr.ph:                                           ; preds = %Abc_TtDup.exit
  %30 = sext i32 %1 to i64
  %31 = shl nsw i64 %30, 2
  %.not50 = icmp eq i32 %5, 0
  br i1 %21, label %.lr.ph.split.us, label %.lr.ph.split

.lr.ph.split.us:                                  ; preds = %.lr.ph
  %wide.trip.count24.i = zext nneg i32 %17 to i64
  %32 = shl nuw nsw i64 %wide.trip.count24.i, 3
  br i1 %.not50, label %.lr.ph.split.us.split.us, label %.lr.ph.split.us.split

.lr.ph.split.us.split.us:                         ; preds = %.lr.ph.split.us, %Abc_TtCopy.exit.us.us
  %.069.us.us = phi i32 [ %.1.us.us, %Abc_TtCopy.exit.us.us ], [ 1000000000, %.lr.ph.split.us ]
  %.04268.us.us = phi i32 [ %.143.us.us, %Abc_TtCopy.exit.us.us ], [ -1, %.lr.ph.split.us ]
  %.04466.us.us = phi i32 [ %37, %Abc_TtCopy.exit.us.us ], [ 0, %.lr.ph.split.us ]
  %33 = icmp ne i32 %.04466.us.us, 0
  %34 = zext i1 %33 to i32
  %35 = call i32 @Gia_ManPermuteTreeOne(ptr noundef %20, i32 noundef %1, i32 noundef %2, i32 noundef %3, i32 noundef %34, ptr noundef nonnull %10, i32 noundef 0, i32 noundef 0)
  %36 = icmp sgt i32 %.069.us.us, %35
  br i1 %36, label %.lr.ph18.preheader.i.us.us, label %Abc_TtCopy.exit.us.us

.lr.ph18.preheader.i.us.us:                       ; preds = %.lr.ph.split.us.split.us
  call void @llvm.memcpy.p0.p0.i64(ptr nonnull align 16 %9, ptr nonnull align 16 %10, i64 %31, i1 false)
  call void @llvm.memcpy.p0.p0.i64(ptr align 8 %27, ptr align 8 %20, i64 %32, i1 false), !tbaa !16
  br label %Abc_TtCopy.exit.us.us

Abc_TtCopy.exit.us.us:                            ; preds = %.lr.ph18.preheader.i.us.us, %.lr.ph.split.us.split.us
  %.143.us.us = phi i32 [ %.04268.us.us, %.lr.ph.split.us.split.us ], [ %.04466.us.us, %.lr.ph18.preheader.i.us.us ]
  %.1.us.us = phi i32 [ %.069.us.us, %.lr.ph.split.us.split.us ], [ %35, %.lr.ph18.preheader.i.us.us ]
  call void @llvm.memcpy.p0.p0.i64(ptr align 8 %20, ptr align 8 %0, i64 %32, i1 false), !tbaa !16
  %37 = add nuw nsw i32 %.04466.us.us, 1
  %exitcond90.not = icmp eq i32 %37, %4
  br i1 %exitcond90.not, label %._crit_edge, label %.lr.ph.split.us.split.us, !llvm.loop !126

.lr.ph.split.us.split:                            ; preds = %.lr.ph.split.us, %Abc_TtCopy.exit.us
  %.069.us = phi i32 [ %.1.us, %Abc_TtCopy.exit.us ], [ 1000000000, %.lr.ph.split.us ]
  %.04268.us = phi i32 [ %.143.us, %Abc_TtCopy.exit.us ], [ -1, %.lr.ph.split.us ]
  %.04466.us = phi i32 [ %42, %Abc_TtCopy.exit.us ], [ 0, %.lr.ph.split.us ]
  %38 = icmp ne i32 %.04466.us, 0
  %39 = zext i1 %38 to i32
  %40 = call i32 @Gia_ManPermuteTreeOne(ptr noundef %20, i32 noundef %1, i32 noundef %2, i32 noundef %3, i32 noundef %39, ptr noundef nonnull %10, i32 noundef 0, i32 noundef %5)
  %41 = icmp sgt i32 %.069.us, %40
  br i1 %41, label %.lr.ph18.preheader.i.us, label %Abc_TtCopy.exit.us

.lr.ph18.preheader.i.us:                          ; preds = %.lr.ph.split.us.split
  call void @llvm.memcpy.p0.p0.i64(ptr nonnull align 16 %9, ptr nonnull align 16 %10, i64 %31, i1 false)
  call void @llvm.memcpy.p0.p0.i64(ptr align 8 %27, ptr align 8 %20, i64 %32, i1 false), !tbaa !16
  br label %Abc_TtCopy.exit.us

Abc_TtCopy.exit.us:                               ; preds = %.lr.ph18.preheader.i.us, %.lr.ph.split.us.split
  %.143.us = phi i32 [ %.04268.us, %.lr.ph.split.us.split ], [ %.04466.us, %.lr.ph18.preheader.i.us ]
  %.1.us = phi i32 [ %.069.us, %.lr.ph.split.us.split ], [ %40, %.lr.ph18.preheader.i.us ]
  call void @llvm.memcpy.p0.p0.i64(ptr align 8 %20, ptr align 8 %0, i64 %32, i1 false), !tbaa !16
  %putchar.us = call i32 @putchar(i32 10)
  %42 = add nuw nsw i32 %.04466.us, 1
  %exitcond89.not = icmp eq i32 %42, %4
  br i1 %exitcond89.not, label %._crit_edge, label %.lr.ph.split.us.split, !llvm.loop !126

.lr.ph.split:                                     ; preds = %.lr.ph
  br i1 %.not50, label %.lr.ph.split.split.us, label %.lr.ph.split.split

.lr.ph.split.split.us:                            ; preds = %.lr.ph.split, %Abc_TtCopy.exit57.us76
  %.069.us72 = phi i32 [ %.163.us77, %Abc_TtCopy.exit57.us76 ], [ 1000000000, %.lr.ph.split ]
  %.04268.us73 = phi i32 [ %.14362.us78, %Abc_TtCopy.exit57.us76 ], [ -1, %.lr.ph.split ]
  %.04466.us74 = phi i32 [ %48, %Abc_TtCopy.exit57.us76 ], [ 0, %.lr.ph.split ]
  %43 = icmp ne i32 %.04466.us74, 0
  %44 = zext i1 %43 to i32
  %45 = call i32 @Gia_ManPermuteTreeOne(ptr noundef %20, i32 noundef %1, i32 noundef %2, i32 noundef %3, i32 noundef %44, ptr noundef nonnull %10, i32 noundef 0, i32 noundef 0)
  %46 = icmp sgt i32 %.069.us72, %45
  br i1 %46, label %47, label %Abc_TtCopy.exit57.us76

47:                                               ; preds = %.lr.ph.split.split.us
  call void @llvm.memcpy.p0.p0.i64(ptr nonnull align 16 %9, ptr nonnull align 16 %10, i64 %31, i1 false)
  br label %Abc_TtCopy.exit57.us76

Abc_TtCopy.exit57.us76:                           ; preds = %.lr.ph.split.split.us, %47
  %.163.us77 = phi i32 [ %45, %47 ], [ %.069.us72, %.lr.ph.split.split.us ]
  %.14362.us78 = phi i32 [ %.04466.us74, %47 ], [ %.04268.us73, %.lr.ph.split.split.us ]
  %48 = add nuw nsw i32 %.04466.us74, 1
  %exitcond88.not = icmp eq i32 %48, %4
  br i1 %exitcond88.not, label %._crit_edge, label %.lr.ph.split.split.us, !llvm.loop !126

.lr.ph.split.split:                               ; preds = %.lr.ph.split, %Abc_TtCopy.exit57
  %.069 = phi i32 [ %.163, %Abc_TtCopy.exit57 ], [ 1000000000, %.lr.ph.split ]
  %.04268 = phi i32 [ %.14362, %Abc_TtCopy.exit57 ], [ -1, %.lr.ph.split ]
  %.04466 = phi i32 [ %54, %Abc_TtCopy.exit57 ], [ 0, %.lr.ph.split ]
  %49 = icmp ne i32 %.04466, 0
  %50 = zext i1 %49 to i32
  %51 = call i32 @Gia_ManPermuteTreeOne(ptr noundef %20, i32 noundef %1, i32 noundef %2, i32 noundef %3, i32 noundef %50, ptr noundef nonnull %10, i32 noundef 0, i32 noundef %5)
  %52 = icmp sgt i32 %.069, %51
  br i1 %52, label %53, label %Abc_TtCopy.exit57

53:                                               ; preds = %.lr.ph.split.split
  call void @llvm.memcpy.p0.p0.i64(ptr nonnull align 16 %9, ptr nonnull align 16 %10, i64 %31, i1 false)
  br label %Abc_TtCopy.exit57

Abc_TtCopy.exit57:                                ; preds = %.lr.ph.split.split, %53
  %.163 = phi i32 [ %51, %53 ], [ %.069, %.lr.ph.split.split ]
  %.14362 = phi i32 [ %.04466, %53 ], [ %.04268, %.lr.ph.split.split ]
  %putchar = call i32 @putchar(i32 10)
  %54 = add nuw nsw i32 %.04466, 1
  %exitcond.not = icmp eq i32 %54, %4
  br i1 %exitcond.not, label %._crit_edge, label %.lr.ph.split.split, !llvm.loop !126

._crit_edge:                                      ; preds = %Abc_TtCopy.exit57, %Abc_TtCopy.exit57.us76, %Abc_TtCopy.exit.us, %Abc_TtCopy.exit.us.us, %Abc_TtDup.exit
  %.042.lcssa = phi i32 [ -1, %Abc_TtDup.exit ], [ %.143.us.us, %Abc_TtCopy.exit.us.us ], [ %.143.us, %Abc_TtCopy.exit.us ], [ %.14362.us78, %Abc_TtCopy.exit57.us76 ], [ %.14362, %Abc_TtCopy.exit57 ]
  %.0.lcssa = phi i32 [ 1000000000, %Abc_TtDup.exit ], [ %.1.us.us, %Abc_TtCopy.exit.us.us ], [ %.1.us, %Abc_TtCopy.exit.us ], [ %.163.us77, %Abc_TtCopy.exit57.us76 ], [ %.163, %Abc_TtCopy.exit57 ]
  %.not = icmp eq i32 %5, 0
  br i1 %.not, label %57, label %55

55:                                               ; preds = %._crit_edge
  %56 = call i32 (ptr, ...) @printf(ptr noundef nonnull dereferenceable(1) @.str.15, i32 noundef %.042.lcssa, i32 noundef %.0.lcssa)
  br label %57

57:                                               ; preds = %55, %._crit_edge
  %.not48 = icmp eq ptr %20, null
  br i1 %.not48, label %59, label %58

58:                                               ; preds = %57
  call void @free(ptr noundef nonnull %20) #24
  br label %59

59:                                               ; preds = %57, %58
  br i1 %.not, label %73, label %60

60:                                               ; preds = %59
  call void @llvm.lifetime.start.p0(i64 16, ptr nonnull %7) #24
  %61 = call i32 @clock_gettime(i32 noundef 1, ptr noundef nonnull %7) #24
  %62 = icmp slt i32 %61, 0
  br i1 %62, label %Abc_Clock.exit59, label %63

63:                                               ; preds = %60
  %64 = load i64, ptr %7, align 8, !tbaa !57
  %65 = mul nsw i64 %64, 1000000
  %66 = getelementptr inbounds nuw i8, ptr %7, i64 8
  %67 = load i64, ptr %66, align 8, !tbaa !59
  %68 = sdiv i64 %67, 1000
  %69 = add nsw i64 %68, %65
  br label %Abc_Clock.exit59

Abc_Clock.exit59:                                 ; preds = %60, %63
  %.0.i58 = phi i64 [ %69, %63 ], [ -1, %60 ]
  call void @llvm.lifetime.end.p0(i64 16, ptr nonnull %7) #24
  %70 = add i64 %.0.i58, %.0.i.neg
  call void (i32, ptr, ...) @Abc_Print(i32 poison, ptr noundef nonnull @.str.21, ptr noundef nonnull @.str.11)
  %71 = sitofp i64 %70 to double
  %72 = fdiv double %71, 1.000000e+06
  call void (i32, ptr, ...) @Abc_Print(i32 poison, ptr noundef nonnull @.str.22, double noundef %72)
  br label %73

73:                                               ; preds = %Abc_Clock.exit59, %59
  %74 = call ptr @Abc_TtSimpleMinArrayNew(ptr noundef %27, i32 noundef %1, i32 noundef %2, ptr noundef null, i32 noundef 0, ptr noundef nonnull %9)
  %.not49 = icmp eq ptr %27, null
  br i1 %.not49, label %76, label %75

75:                                               ; preds = %73
  call void @free(ptr noundef nonnull %27) #24
  br label %76

76:                                               ; preds = %73, %75
  call void @llvm.lifetime.end.p0(i64 64, ptr nonnull %10) #24
  call void @llvm.lifetime.end.p0(i64 64, ptr nonnull %9) #24
  ret ptr %74
}